	.file	"vector_class.cpp"
	.text
	.section	.rodata
	.type	_ZStL19piecewise_construct, @object
	.size	_ZStL19piecewise_construct, 1
_ZStL19piecewise_construct:
	.zero	1
	.local	_ZStL8__ioinit
	.comm	_ZStL8__ioinit,1,1
	.text
	.align 2
	.globl	_ZN6vectorC2Ei
	.type	_ZN6vectorC2Ei, @function
_ZN6vectorC2Ei:
.LFB2026:
	.cfi_startproc
	endbr64
	pushq	%rbp
	.cfi_def_cfa_offset 16
	.cfi_offset 6, -16
	movq	%rsp, %rbp
	.cfi_def_cfa_register 6
	subq	$32, %rsp
	movq	%rdi, -24(%rbp)
	movl	%esi, -28(%rbp)
	movq	-24(%rbp), %rax
	movl	-28(%rbp), %edx
	movl	%edx, (%rax)
	movq	-24(%rbp), %rax
	movl	(%rax), %eax
	cltq
	movabsq	$1152921504606846975, %rdx
	cmpq	%rdx, %rax
	ja	.L2
	salq	$3, %rax
	movq	%rax, %rdi
	call	_Znam@PLT
	movq	%rax, %rdx
	movq	-24(%rbp), %rax
	movq	%rdx, 8(%rax)
	movl	$0, -4(%rbp)
	jmp	.L5
.L2:
	call	__cxa_throw_bad_array_new_length@PLT
.L5:
	movq	-24(%rbp), %rax
	movl	(%rax), %eax
	cmpl	%eax, -4(%rbp)
	jge	.L6
	movq	-24(%rbp), %rax
	movq	8(%rax), %rdx
	movl	-4(%rbp), %eax
	cltq
	salq	$3, %rax
	addq	%rdx, %rax
	pxor	%xmm0, %xmm0
	movsd	%xmm0, (%rax)
	addl	$1, -4(%rbp)
	jmp	.L5
.L6:
	nop
	leave
	.cfi_def_cfa 7, 8
	ret
	.cfi_endproc
.LFE2026:
	.size	_ZN6vectorC2Ei, .-_ZN6vectorC2Ei
	.globl	_ZN6vectorC1Ei
	.set	_ZN6vectorC1Ei,_ZN6vectorC2Ei
	.section	.text._ZNKSt16initializer_listIdE4sizeEv,"axG",@progbits,_ZNKSt16initializer_listIdE4sizeEv,comdat
	.align 2
	.weak	_ZNKSt16initializer_listIdE4sizeEv
	.type	_ZNKSt16initializer_listIdE4sizeEv, @function
_ZNKSt16initializer_listIdE4sizeEv:
.LFB2029:
	.cfi_startproc
	endbr64
	pushq	%rbp
	.cfi_def_cfa_offset 16
	.cfi_offset 6, -16
	movq	%rsp, %rbp
	.cfi_def_cfa_register 6
	movq	%rdi, -8(%rbp)
	movq	-8(%rbp), %rax
	movq	8(%rax), %rax
	popq	%rbp
	.cfi_def_cfa 7, 8
	ret
	.cfi_endproc
.LFE2029:
	.size	_ZNKSt16initializer_listIdE4sizeEv, .-_ZNKSt16initializer_listIdE4sizeEv
	.text
	.align 2
	.globl	_ZN6vectorC2ESt16initializer_listIdE
	.type	_ZN6vectorC2ESt16initializer_listIdE, @function
_ZN6vectorC2ESt16initializer_listIdE:
.LFB2030:
	.cfi_startproc
	endbr64
	pushq	%rbp
	.cfi_def_cfa_offset 16
	.cfi_offset 6, -16
	movq	%rsp, %rbp
	.cfi_def_cfa_register 6
	pushq	%r12
	pushq	%rbx
	subq	$32, %rsp
	.cfi_offset 12, -24
	.cfi_offset 3, -32
	movq	%rdi, -24(%rbp)
	movq	%rdx, %rcx
	movq	%rsi, %rax
	movq	%rdi, %rdx
	movq	%rcx, %rdx
	movq	%rax, -48(%rbp)
	movq	%rdx, -40(%rbp)
	leaq	-48(%rbp), %rax
	movq	%rax, %rdi
	call	_ZNKSt16initializer_listIdE4sizeEv
	movl	%eax, %edx
	movq	-24(%rbp), %rax
	movl	%edx, (%rax)
	movq	-24(%rbp), %rax
	movl	(%rax), %eax
	cltq
	movabsq	$1152921504606846975, %rdx
	cmpq	%rdx, %rax
	ja	.L10
	salq	$3, %rax
	jmp	.L12
.L10:
	call	__cxa_throw_bad_array_new_length@PLT
.L12:
	movq	%rax, %rdi
	call	_Znam@PLT
	movq	%rax, %rdx
	movq	-24(%rbp), %rax
	movq	%rdx, 8(%rax)
	movq	-24(%rbp), %rax
	movq	8(%rax), %rbx
	leaq	-48(%rbp), %rax
	movq	%rax, %rdi
	call	_ZNKSt16initializer_listIdE3endEv
	movq	%rax, %r12
	leaq	-48(%rbp), %rax
	movq	%rax, %rdi
	call	_ZNKSt16initializer_listIdE5beginEv
	movq	%rbx, %rdx
	movq	%r12, %rsi
	movq	%rax, %rdi
	call	_ZSt4copyIPKdPdET0_T_S4_S3_
	nop
	addq	$32, %rsp
	popq	%rbx
	popq	%r12
	popq	%rbp
	.cfi_def_cfa 7, 8
	ret
	.cfi_endproc
.LFE2030:
	.size	_ZN6vectorC2ESt16initializer_listIdE, .-_ZN6vectorC2ESt16initializer_listIdE
	.globl	_ZN6vectorC1ESt16initializer_listIdE
	.set	_ZN6vectorC1ESt16initializer_listIdE,_ZN6vectorC2ESt16initializer_listIdE
	.align 2
	.globl	_ZN6vectorC2ERKS_
	.type	_ZN6vectorC2ERKS_, @function
_ZN6vectorC2ERKS_:
.LFB2033:
	.cfi_startproc
	endbr64
	pushq	%rbp
	.cfi_def_cfa_offset 16
	.cfi_offset 6, -16
	movq	%rsp, %rbp
	.cfi_def_cfa_register 6
	subq	$16, %rsp
	movq	%rdi, -8(%rbp)
	movq	%rsi, -16(%rbp)
	movq	-16(%rbp), %rax
	movl	(%rax), %edx
	movq	-8(%rbp), %rax
	movl	%edx, (%rax)
	movq	-16(%rbp), %rax
	movl	(%rax), %eax
	cltq
	movabsq	$1152921504606846975, %rdx
	cmpq	%rdx, %rax
	ja	.L14
	movq	-16(%rbp), %rax
	movl	(%rax), %eax
	cltq
	salq	$3, %rax
	jmp	.L16
.L14:
	call	__cxa_throw_bad_array_new_length@PLT
.L16:
	movq	%rax, %rdi
	call	_Znam@PLT
	movq	%rax, %rdx
	movq	-8(%rbp), %rax
	movq	%rdx, 8(%rax)
	movq	-8(%rbp), %rax
	movq	8(%rax), %rdx
	movq	-16(%rbp), %rax
	movq	8(%rax), %rcx
	movq	-16(%rbp), %rax
	movl	(%rax), %eax
	cltq
	salq	$3, %rax
	addq	%rax, %rcx
	movq	-16(%rbp), %rax
	movq	8(%rax), %rax
	movq	%rcx, %rsi
	movq	%rax, %rdi
	call	_ZSt4copyIPdS0_ET0_T_S2_S1_
	nop
	leave
	.cfi_def_cfa 7, 8
	ret
	.cfi_endproc
.LFE2033:
	.size	_ZN6vectorC2ERKS_, .-_ZN6vectorC2ERKS_
	.globl	_ZN6vectorC1ERKS_
	.set	_ZN6vectorC1ERKS_,_ZN6vectorC2ERKS_
	.align 2
	.globl	_ZN6vectorD2Ev
	.type	_ZN6vectorD2Ev, @function
_ZN6vectorD2Ev:
.LFB2036:
	.cfi_startproc
	endbr64
	pushq	%rbp
	.cfi_def_cfa_offset 16
	.cfi_offset 6, -16
	movq	%rsp, %rbp
	.cfi_def_cfa_register 6
	subq	$16, %rsp
	movq	%rdi, -8(%rbp)
	movq	-8(%rbp), %rax
	movq	8(%rax), %rax
	testq	%rax, %rax
	je	.L19
	movq	-8(%rbp), %rax
	movq	8(%rax), %rax
	movq	%rax, %rdi
	call	_ZdaPv@PLT
.L19:
	nop
	leave
	.cfi_def_cfa 7, 8
	ret
	.cfi_endproc
.LFE2036:
	.size	_ZN6vectorD2Ev, .-_ZN6vectorD2Ev
	.globl	_ZN6vectorD1Ev
	.set	_ZN6vectorD1Ev,_ZN6vectorD2Ev
	.section	.text._ZSt4copyIPdS0_ET0_T_S2_S1_,"axG",@progbits,_ZSt4copyIPdS0_ET0_T_S2_S1_,comdat
	.weak	_ZSt4copyIPdS0_ET0_T_S2_S1_
	.type	_ZSt4copyIPdS0_ET0_T_S2_S1_, @function
_ZSt4copyIPdS0_ET0_T_S2_S1_:
.LFB2282:
	.cfi_startproc
	endbr64
	pushq	%rbp
	.cfi_def_cfa_offset 16
	.cfi_offset 6, -16
	movq	%rsp, %rbp
	.cfi_def_cfa_register 6
	pushq	%rbx
	subq	$40, %rsp
	.cfi_offset 3, -24
	movq	%rdi, -24(%rbp)
	movq	%rsi, -32(%rbp)
	movq	%rdx, -40(%rbp)
	movq	-32(%rbp), %rax
	movq	%rax, %rdi
	call	_ZSt12__miter_baseIPdET_S1_
	movq	%rax, %rbx
	movq	-24(%rbp), %rax
	movq	%rax, %rdi
	call	_ZSt12__miter_baseIPdET_S1_
	movq	%rax, %rcx
	movq	-40(%rbp), %rax
	movq	%rax, %rdx
	movq	%rbx, %rsi
	movq	%rcx, %rdi
	call	_ZSt13__copy_move_aILb0EPdS0_ET1_T0_S2_S1_
	movq	-8(%rbp), %rbx
	leave
	.cfi_def_cfa 7, 8
	ret
	.cfi_endproc
.LFE2282:
	.size	_ZSt4copyIPdS0_ET0_T_S2_S1_, .-_ZSt4copyIPdS0_ET0_T_S2_S1_
	.section	.text._ZNKSt16initializer_listIdE5beginEv,"axG",@progbits,_ZNKSt16initializer_listIdE5beginEv,comdat
	.align 2
	.weak	_ZNKSt16initializer_listIdE5beginEv
	.type	_ZNKSt16initializer_listIdE5beginEv, @function
_ZNKSt16initializer_listIdE5beginEv:
.LFB2283:
	.cfi_startproc
	endbr64
	pushq	%rbp
	.cfi_def_cfa_offset 16
	.cfi_offset 6, -16
	movq	%rsp, %rbp
	.cfi_def_cfa_register 6
	movq	%rdi, -8(%rbp)
	movq	-8(%rbp), %rax
	movq	(%rax), %rax
	popq	%rbp
	.cfi_def_cfa 7, 8
	ret
	.cfi_endproc
.LFE2283:
	.size	_ZNKSt16initializer_listIdE5beginEv, .-_ZNKSt16initializer_listIdE5beginEv
	.section	.text._ZNKSt16initializer_listIdE3endEv,"axG",@progbits,_ZNKSt16initializer_listIdE3endEv,comdat
	.align 2
	.weak	_ZNKSt16initializer_listIdE3endEv
	.type	_ZNKSt16initializer_listIdE3endEv, @function
_ZNKSt16initializer_listIdE3endEv:
.LFB2284:
	.cfi_startproc
	endbr64
	pushq	%rbp
	.cfi_def_cfa_offset 16
	.cfi_offset 6, -16
	movq	%rsp, %rbp
	.cfi_def_cfa_register 6
	pushq	%rbx
	subq	$24, %rsp
	.cfi_offset 3, -24
	movq	%rdi, -24(%rbp)
	movq	-24(%rbp), %rax
	movq	%rax, %rdi
	call	_ZNKSt16initializer_listIdE5beginEv
	movq	%rax, %rbx
	movq	-24(%rbp), %rax
	movq	%rax, %rdi
	call	_ZNKSt16initializer_listIdE4sizeEv
	salq	$3, %rax
	addq	%rbx, %rax
	movq	-8(%rbp), %rbx
	leave
	.cfi_def_cfa 7, 8
	ret
	.cfi_endproc
.LFE2284:
	.size	_ZNKSt16initializer_listIdE3endEv, .-_ZNKSt16initializer_listIdE3endEv
	.section	.text._ZSt4copyIPKdPdET0_T_S4_S3_,"axG",@progbits,_ZSt4copyIPKdPdET0_T_S4_S3_,comdat
	.weak	_ZSt4copyIPKdPdET0_T_S4_S3_
	.type	_ZSt4copyIPKdPdET0_T_S4_S3_, @function
_ZSt4copyIPKdPdET0_T_S4_S3_:
.LFB2285:
	.cfi_startproc
	endbr64
	pushq	%rbp
	.cfi_def_cfa_offset 16
	.cfi_offset 6, -16
	movq	%rsp, %rbp
	.cfi_def_cfa_register 6
	pushq	%rbx
	subq	$40, %rsp
	.cfi_offset 3, -24
	movq	%rdi, -24(%rbp)
	movq	%rsi, -32(%rbp)
	movq	%rdx, -40(%rbp)
	movq	-32(%rbp), %rax
	movq	%rax, %rdi
	call	_ZSt12__miter_baseIPKdET_S2_
	movq	%rax, %rbx
	movq	-24(%rbp), %rax
	movq	%rax, %rdi
	call	_ZSt12__miter_baseIPKdET_S2_
	movq	%rax, %rcx
	movq	-40(%rbp), %rax
	movq	%rax, %rdx
	movq	%rbx, %rsi
	movq	%rcx, %rdi
	call	_ZSt13__copy_move_aILb0EPKdPdET1_T0_S4_S3_
	movq	-8(%rbp), %rbx
	leave
	.cfi_def_cfa 7, 8
	ret
	.cfi_endproc
.LFE2285:
	.size	_ZSt4copyIPKdPdET0_T_S4_S3_, .-_ZSt4copyIPKdPdET0_T_S4_S3_
	.section	.text._ZSt12__miter_baseIPdET_S1_,"axG",@progbits,_ZSt12__miter_baseIPdET_S1_,comdat
	.weak	_ZSt12__miter_baseIPdET_S1_
	.type	_ZSt12__miter_baseIPdET_S1_, @function
_ZSt12__miter_baseIPdET_S1_:
.LFB2395:
	.cfi_startproc
	endbr64
	pushq	%rbp
	.cfi_def_cfa_offset 16
	.cfi_offset 6, -16
	movq	%rsp, %rbp
	.cfi_def_cfa_register 6
	movq	%rdi, -8(%rbp)
	movq	-8(%rbp), %rax
	popq	%rbp
	.cfi_def_cfa 7, 8
	ret
	.cfi_endproc
.LFE2395:
	.size	_ZSt12__miter_baseIPdET_S1_, .-_ZSt12__miter_baseIPdET_S1_
	.section	.text._ZSt13__copy_move_aILb0EPdS0_ET1_T0_S2_S1_,"axG",@progbits,_ZSt13__copy_move_aILb0EPdS0_ET1_T0_S2_S1_,comdat
	.weak	_ZSt13__copy_move_aILb0EPdS0_ET1_T0_S2_S1_
	.type	_ZSt13__copy_move_aILb0EPdS0_ET1_T0_S2_S1_, @function
_ZSt13__copy_move_aILb0EPdS0_ET1_T0_S2_S1_:
.LFB2396:
	.cfi_startproc
	endbr64
	pushq	%rbp
	.cfi_def_cfa_offset 16
	.cfi_offset 6, -16
	movq	%rsp, %rbp
	.cfi_def_cfa_register 6
	pushq	%r12
	pushq	%rbx
	subq	$32, %rsp
	.cfi_offset 12, -24
	.cfi_offset 3, -32
	movq	%rdi, -24(%rbp)
	movq	%rsi, -32(%rbp)
	movq	%rdx, -40(%rbp)
	movq	-40(%rbp), %rax
	movq	%rax, %rdi
	call	_ZSt12__niter_baseIPdET_S1_
	movq	%rax, %r12
	movq	-32(%rbp), %rax
	movq	%rax, %rdi
	call	_ZSt12__niter_baseIPdET_S1_
	movq	%rax, %rbx
	movq	-24(%rbp), %rax
	movq	%rax, %rdi
	call	_ZSt12__niter_baseIPdET_S1_
	movq	%r12, %rdx
	movq	%rbx, %rsi
	movq	%rax, %rdi
	call	_ZSt14__copy_move_a1ILb0EPdS0_ET1_T0_S2_S1_
	movq	%rax, %rdx
	leaq	-40(%rbp), %rax
	movq	%rdx, %rsi
	movq	%rax, %rdi
	call	_ZSt12__niter_wrapIPdET_RKS1_S1_
	addq	$32, %rsp
	popq	%rbx
	popq	%r12
	popq	%rbp
	.cfi_def_cfa 7, 8
	ret
	.cfi_endproc
.LFE2396:
	.size	_ZSt13__copy_move_aILb0EPdS0_ET1_T0_S2_S1_, .-_ZSt13__copy_move_aILb0EPdS0_ET1_T0_S2_S1_
	.section	.text._ZSt12__miter_baseIPKdET_S2_,"axG",@progbits,_ZSt12__miter_baseIPKdET_S2_,comdat
	.weak	_ZSt12__miter_baseIPKdET_S2_
	.type	_ZSt12__miter_baseIPKdET_S2_, @function
_ZSt12__miter_baseIPKdET_S2_:
.LFB2398:
	.cfi_startproc
	endbr64
	pushq	%rbp
	.cfi_def_cfa_offset 16
	.cfi_offset 6, -16
	movq	%rsp, %rbp
	.cfi_def_cfa_register 6
	movq	%rdi, -8(%rbp)
	movq	-8(%rbp), %rax
	popq	%rbp
	.cfi_def_cfa 7, 8
	ret
	.cfi_endproc
.LFE2398:
	.size	_ZSt12__miter_baseIPKdET_S2_, .-_ZSt12__miter_baseIPKdET_S2_
	.section	.text._ZSt13__copy_move_aILb0EPKdPdET1_T0_S4_S3_,"axG",@progbits,_ZSt13__copy_move_aILb0EPKdPdET1_T0_S4_S3_,comdat
	.weak	_ZSt13__copy_move_aILb0EPKdPdET1_T0_S4_S3_
	.type	_ZSt13__copy_move_aILb0EPKdPdET1_T0_S4_S3_, @function
_ZSt13__copy_move_aILb0EPKdPdET1_T0_S4_S3_:
.LFB2399:
	.cfi_startproc
	endbr64
	pushq	%rbp
	.cfi_def_cfa_offset 16
	.cfi_offset 6, -16
	movq	%rsp, %rbp
	.cfi_def_cfa_register 6
	pushq	%r12
	pushq	%rbx
	subq	$32, %rsp
	.cfi_offset 12, -24
	.cfi_offset 3, -32
	movq	%rdi, -24(%rbp)
	movq	%rsi, -32(%rbp)
	movq	%rdx, -40(%rbp)
	movq	-40(%rbp), %rax
	movq	%rax, %rdi
	call	_ZSt12__niter_baseIPdET_S1_
	movq	%rax, %r12
	movq	-32(%rbp), %rax
	movq	%rax, %rdi
	call	_ZSt12__niter_baseIPKdET_S2_
	movq	%rax, %rbx
	movq	-24(%rbp), %rax
	movq	%rax, %rdi
	call	_ZSt12__niter_baseIPKdET_S2_
	movq	%r12, %rdx
	movq	%rbx, %rsi
	movq	%rax, %rdi
	call	_ZSt14__copy_move_a1ILb0EPKdPdET1_T0_S4_S3_
	movq	%rax, %rdx
	leaq	-40(%rbp), %rax
	movq	%rdx, %rsi
	movq	%rax, %rdi
	call	_ZSt12__niter_wrapIPdET_RKS1_S1_
	addq	$32, %rsp
	popq	%rbx
	popq	%r12
	popq	%rbp
	.cfi_def_cfa 7, 8
	ret
	.cfi_endproc
.LFE2399:
	.size	_ZSt13__copy_move_aILb0EPKdPdET1_T0_S4_S3_, .-_ZSt13__copy_move_aILb0EPKdPdET1_T0_S4_S3_
	.section	.text._ZSt12__niter_baseIPdET_S1_,"axG",@progbits,_ZSt12__niter_baseIPdET_S1_,comdat
	.weak	_ZSt12__niter_baseIPdET_S1_
	.type	_ZSt12__niter_baseIPdET_S1_, @function
_ZSt12__niter_baseIPdET_S1_:
.LFB2435:
	.cfi_startproc
	endbr64
	pushq	%rbp
	.cfi_def_cfa_offset 16
	.cfi_offset 6, -16
	movq	%rsp, %rbp
	.cfi_def_cfa_register 6
	movq	%rdi, -8(%rbp)
	movq	-8(%rbp), %rax
	popq	%rbp
	.cfi_def_cfa 7, 8
	ret
	.cfi_endproc
.LFE2435:
	.size	_ZSt12__niter_baseIPdET_S1_, .-_ZSt12__niter_baseIPdET_S1_
	.section	.text._ZSt14__copy_move_a1ILb0EPdS0_ET1_T0_S2_S1_,"axG",@progbits,_ZSt14__copy_move_a1ILb0EPdS0_ET1_T0_S2_S1_,comdat
	.weak	_ZSt14__copy_move_a1ILb0EPdS0_ET1_T0_S2_S1_
	.type	_ZSt14__copy_move_a1ILb0EPdS0_ET1_T0_S2_S1_, @function
_ZSt14__copy_move_a1ILb0EPdS0_ET1_T0_S2_S1_:
.LFB2436:
	.cfi_startproc
	endbr64
	pushq	%rbp
	.cfi_def_cfa_offset 16
	.cfi_offset 6, -16
	movq	%rsp, %rbp
	.cfi_def_cfa_register 6
	subq	$32, %rsp
	movq	%rdi, -8(%rbp)
	movq	%rsi, -16(%rbp)
	movq	%rdx, -24(%rbp)
	movq	-24(%rbp), %rdx
	movq	-16(%rbp), %rcx
	movq	-8(%rbp), %rax
	movq	%rcx, %rsi
	movq	%rax, %rdi
	call	_ZSt14__copy_move_a2ILb0EPdS0_ET1_T0_S2_S1_
	leave
	.cfi_def_cfa 7, 8
	ret
	.cfi_endproc
.LFE2436:
	.size	_ZSt14__copy_move_a1ILb0EPdS0_ET1_T0_S2_S1_, .-_ZSt14__copy_move_a1ILb0EPdS0_ET1_T0_S2_S1_
	.section	.text._ZSt12__niter_wrapIPdET_RKS1_S1_,"axG",@progbits,_ZSt12__niter_wrapIPdET_RKS1_S1_,comdat
	.weak	_ZSt12__niter_wrapIPdET_RKS1_S1_
	.type	_ZSt12__niter_wrapIPdET_RKS1_S1_, @function
_ZSt12__niter_wrapIPdET_RKS1_S1_:
.LFB2437:
	.cfi_startproc
	endbr64
	pushq	%rbp
	.cfi_def_cfa_offset 16
	.cfi_offset 6, -16
	movq	%rsp, %rbp
	.cfi_def_cfa_register 6
	movq	%rdi, -8(%rbp)
	movq	%rsi, -16(%rbp)
	movq	-16(%rbp), %rax
	popq	%rbp
	.cfi_def_cfa 7, 8
	ret
	.cfi_endproc
.LFE2437:
	.size	_ZSt12__niter_wrapIPdET_RKS1_S1_, .-_ZSt12__niter_wrapIPdET_RKS1_S1_
	.section	.text._ZSt12__niter_baseIPKdET_S2_,"axG",@progbits,_ZSt12__niter_baseIPKdET_S2_,comdat
	.weak	_ZSt12__niter_baseIPKdET_S2_
	.type	_ZSt12__niter_baseIPKdET_S2_, @function
_ZSt12__niter_baseIPKdET_S2_:
.LFB2438:
	.cfi_startproc
	endbr64
	pushq	%rbp
	.cfi_def_cfa_offset 16
	.cfi_offset 6, -16
	movq	%rsp, %rbp
	.cfi_def_cfa_register 6
	movq	%rdi, -8(%rbp)
	movq	-8(%rbp), %rax
	popq	%rbp
	.cfi_def_cfa 7, 8
	ret
	.cfi_endproc
.LFE2438:
	.size	_ZSt12__niter_baseIPKdET_S2_, .-_ZSt12__niter_baseIPKdET_S2_
	.section	.text._ZSt14__copy_move_a1ILb0EPKdPdET1_T0_S4_S3_,"axG",@progbits,_ZSt14__copy_move_a1ILb0EPKdPdET1_T0_S4_S3_,comdat
	.weak	_ZSt14__copy_move_a1ILb0EPKdPdET1_T0_S4_S3_
	.type	_ZSt14__copy_move_a1ILb0EPKdPdET1_T0_S4_S3_, @function
_ZSt14__copy_move_a1ILb0EPKdPdET1_T0_S4_S3_:
.LFB2439:
	.cfi_startproc
	endbr64
	pushq	%rbp
	.cfi_def_cfa_offset 16
	.cfi_offset 6, -16
	movq	%rsp, %rbp
	.cfi_def_cfa_register 6
	subq	$32, %rsp
	movq	%rdi, -8(%rbp)
	movq	%rsi, -16(%rbp)
	movq	%rdx, -24(%rbp)
	movq	-24(%rbp), %rdx
	movq	-16(%rbp), %rcx
	movq	-8(%rbp), %rax
	movq	%rcx, %rsi
	movq	%rax, %rdi
	call	_ZSt14__copy_move_a2ILb0EPKdPdET1_T0_S4_S3_
	leave
	.cfi_def_cfa 7, 8
	ret
	.cfi_endproc
.LFE2439:
	.size	_ZSt14__copy_move_a1ILb0EPKdPdET1_T0_S4_S3_, .-_ZSt14__copy_move_a1ILb0EPKdPdET1_T0_S4_S3_
	.section	.text._ZSt14__copy_move_a2ILb0EPdS0_ET1_T0_S2_S1_,"axG",@progbits,_ZSt14__copy_move_a2ILb0EPdS0_ET1_T0_S2_S1_,comdat
	.weak	_ZSt14__copy_move_a2ILb0EPdS0_ET1_T0_S2_S1_
	.type	_ZSt14__copy_move_a2ILb0EPdS0_ET1_T0_S2_S1_, @function
_ZSt14__copy_move_a2ILb0EPdS0_ET1_T0_S2_S1_:
.LFB2474:
	.cfi_startproc
	endbr64
	pushq	%rbp
	.cfi_def_cfa_offset 16
	.cfi_offset 6, -16
	movq	%rsp, %rbp
	.cfi_def_cfa_register 6
	subq	$32, %rsp
	movq	%rdi, -8(%rbp)
	movq	%rsi, -16(%rbp)
	movq	%rdx, -24(%rbp)
	movq	-24(%rbp), %rdx
	movq	-16(%rbp), %rcx
	movq	-8(%rbp), %rax
	movq	%rcx, %rsi
	movq	%rax, %rdi
	call	_ZNSt11__copy_moveILb0ELb1ESt26random_access_iterator_tagE8__copy_mIdEEPT_PKS3_S6_S4_
	leave
	.cfi_def_cfa 7, 8
	ret
	.cfi_endproc
.LFE2474:
	.size	_ZSt14__copy_move_a2ILb0EPdS0_ET1_T0_S2_S1_, .-_ZSt14__copy_move_a2ILb0EPdS0_ET1_T0_S2_S1_
	.section	.text._ZSt14__copy_move_a2ILb0EPKdPdET1_T0_S4_S3_,"axG",@progbits,_ZSt14__copy_move_a2ILb0EPKdPdET1_T0_S4_S3_,comdat
	.weak	_ZSt14__copy_move_a2ILb0EPKdPdET1_T0_S4_S3_
	.type	_ZSt14__copy_move_a2ILb0EPKdPdET1_T0_S4_S3_, @function
_ZSt14__copy_move_a2ILb0EPKdPdET1_T0_S4_S3_:
.LFB2475:
	.cfi_startproc
	endbr64
	pushq	%rbp
	.cfi_def_cfa_offset 16
	.cfi_offset 6, -16
	movq	%rsp, %rbp
	.cfi_def_cfa_register 6
	subq	$32, %rsp
	movq	%rdi, -8(%rbp)
	movq	%rsi, -16(%rbp)
	movq	%rdx, -24(%rbp)
	movq	-24(%rbp), %rdx
	movq	-16(%rbp), %rcx
	movq	-8(%rbp), %rax
	movq	%rcx, %rsi
	movq	%rax, %rdi
	call	_ZNSt11__copy_moveILb0ELb1ESt26random_access_iterator_tagE8__copy_mIdEEPT_PKS3_S6_S4_
	leave
	.cfi_def_cfa 7, 8
	ret
	.cfi_endproc
.LFE2475:
	.size	_ZSt14__copy_move_a2ILb0EPKdPdET1_T0_S4_S3_, .-_ZSt14__copy_move_a2ILb0EPKdPdET1_T0_S4_S3_
	.section	.text._ZNSt11__copy_moveILb0ELb1ESt26random_access_iterator_tagE8__copy_mIdEEPT_PKS3_S6_S4_,"axG",@progbits,_ZNSt11__copy_moveILb0ELb1ESt26random_access_iterator_tagE8__copy_mIdEEPT_PKS3_S6_S4_,comdat
	.weak	_ZNSt11__copy_moveILb0ELb1ESt26random_access_iterator_tagE8__copy_mIdEEPT_PKS3_S6_S4_
	.type	_ZNSt11__copy_moveILb0ELb1ESt26random_access_iterator_tagE8__copy_mIdEEPT_PKS3_S6_S4_, @function
_ZNSt11__copy_moveILb0ELb1ESt26random_access_iterator_tagE8__copy_mIdEEPT_PKS3_S6_S4_:
.LFB2505:
	.cfi_startproc
	endbr64
	pushq	%rbp
	.cfi_def_cfa_offset 16
	.cfi_offset 6, -16
	movq	%rsp, %rbp
	.cfi_def_cfa_register 6
	subq	$48, %rsp
	movq	%rdi, -24(%rbp)
	movq	%rsi, -32(%rbp)
	movq	%rdx, -40(%rbp)
	movq	-32(%rbp), %rax
	subq	-24(%rbp), %rax
	sarq	$3, %rax
	movq	%rax, -8(%rbp)
	cmpq	$0, -8(%rbp)
	je	.L51
	movq	-8(%rbp), %rax
	leaq	0(,%rax,8), %rdx
	movq	-24(%rbp), %rcx
	movq	-40(%rbp), %rax
	movq	%rcx, %rsi
	movq	%rax, %rdi
	call	memmove@PLT
.L51:
	movq	-8(%rbp), %rax
	leaq	0(,%rax,8), %rdx
	movq	-40(%rbp), %rax
	addq	%rdx, %rax
	leave
	.cfi_def_cfa 7, 8
	ret
	.cfi_endproc
.LFE2505:
	.size	_ZNSt11__copy_moveILb0ELb1ESt26random_access_iterator_tagE8__copy_mIdEEPT_PKS3_S6_S4_, .-_ZNSt11__copy_moveILb0ELb1ESt26random_access_iterator_tagE8__copy_mIdEEPT_PKS3_S6_S4_
	.text
	.type	_Z41__static_initialization_and_destruction_0ii, @function
_Z41__static_initialization_and_destruction_0ii:
.LFB2549:
	.cfi_startproc
	endbr64
	pushq	%rbp
	.cfi_def_cfa_offset 16
	.cfi_offset 6, -16
	movq	%rsp, %rbp
	.cfi_def_cfa_register 6
	subq	$16, %rsp
	movl	%edi, -4(%rbp)
	movl	%esi, -8(%rbp)
	cmpl	$1, -4(%rbp)
	jne	.L55
	cmpl	$65535, -8(%rbp)
	jne	.L55
	leaq	_ZStL8__ioinit(%rip), %rdi
	call	_ZNSt8ios_base4InitC1Ev@PLT
	leaq	__dso_handle(%rip), %rdx
	leaq	_ZStL8__ioinit(%rip), %rsi
	movq	_ZNSt8ios_base4InitD1Ev@GOTPCREL(%rip), %rax
	movq	%rax, %rdi
	call	__cxa_atexit@PLT
.L55:
	nop
	leave
	.cfi_def_cfa 7, 8
	ret
	.cfi_endproc
.LFE2549:
	.size	_Z41__static_initialization_and_destruction_0ii, .-_Z41__static_initialization_and_destruction_0ii
	.type	_GLOBAL__sub_I__ZN6vectorC2Ei, @function
_GLOBAL__sub_I__ZN6vectorC2Ei:
.LFB2550:
	.cfi_startproc
	endbr64
	pushq	%rbp
	.cfi_def_cfa_offset 16
	.cfi_offset 6, -16
	movq	%rsp, %rbp
	.cfi_def_cfa_register 6
	movl	$65535, %esi
	movl	$1, %edi
	call	_Z41__static_initialization_and_destruction_0ii
	popq	%rbp
	.cfi_def_cfa 7, 8
	ret
	.cfi_endproc
.LFE2550:
	.size	_GLOBAL__sub_I__ZN6vectorC2Ei, .-_GLOBAL__sub_I__ZN6vectorC2Ei
	.section	.init_array,"aw"
	.align 8
	.quad	_GLOBAL__sub_I__ZN6vectorC2Ei
	.hidden	__dso_handle
	.ident	"GCC: (Ubuntu 10.2.0-13ubuntu1) 10.2.0"
	.section	.note.GNU-stack,"",@progbits
	.section	.note.gnu.property,"a"
	.align 8
	.long	 1f - 0f
	.long	 4f - 1f
	.long	 5
0:
	.string	 "GNU"
1:
	.align 8
	.long	 0xc0000002
	.long	 3f - 2f
2:
	.long	 0x3
3:
	.align 8
4:
